; Function Attrs: nounwind uwtable
define hidden void @aom_highbd_dc_128_predictor_64x32_c(ptr noundef %0, i64 noundef %1, ptr nocapture noundef readnone %2, ptr nocapture noundef readnone %3, i32 noundef %4) local_unnamed_addr #1 {
  %6 = add nsw i32 %4, -8
  %7 = shl i32 128, %6
  br label %8

8:                                                ; preds = %8, %5
  %.02.i = phi i32 [ 0, %5 ], [ %11, %8 ]
  %.071.i = phi ptr [ %0, %5 ], [ %10, %8 ]
  %9 = tail call ptr @aom_memset16(ptr noundef %.071.i, i32 noundef %7, i64 noundef 64) #8
  %10 = getelementptr inbounds i16, ptr %.071.i, i64 %1
  %11 = add nuw nsw i32 %.02.i, 1
  %exitcond.not.i = icmp eq i32 %11, 32
  br i1 %exitcond.not.i, label %highbd_dc_128_predictor.exit, label %8, !llvm.loop !38

highbd_dc_128_predictor.exit:                     ; preds = %8
  ret void
}